; Function Attrs: nounwind uwtable
define void @Abc_FrameUnmapAllNetworks(ptr noundef readonly captures(none) %0) local_unnamed_addr #1 {
  %2 = getelementptr inbounds nuw i8, ptr %0, i64 48
  %.08 = load ptr, ptr %2, align 8, !tbaa !110
  %.not9 = icmp eq ptr %.08, null
  br i1 %.not9, label %._crit_edge, label %.lr.ph

.lr.ph:                                           ; preds = %1, %6
  %.010 = phi ptr [ %.0, %6 ], [ %.08, %1 ]
  %3 = getelementptr i8, ptr %.010, i64 4
  %.0.val6 = load i32, ptr %3, align 4, !tbaa !117
  %.not7 = icmp eq i32 %.0.val6, 4
  br i1 %.not7, label %4, label %6

4:                                                ; preds = %.lr.ph
  %5 = tail call i32 @Abc_NtkMapToSop(ptr noundef nonnull %.010) #20
  br label %6

6:                                                ; preds = %.lr.ph, %4
  %7 = getelementptr i8, ptr %.010, i64 160
  %.0 = load ptr, ptr %7, align 8, !tbaa !110
  %.not = icmp eq ptr %.0, null
  br i1 %.not, label %._crit_edge, label %.lr.ph, !llvm.loop !118

._crit_edge:                                      ; preds = %6, %1
  ret void
}